; Function Attrs: nounwind uwtable
define hidden void @mbedtls_ecp_keypair_init(ptr noundef initializes((0, 4)) %0) local_unnamed_addr #7 {
  store i32 0, ptr %0, align 8, !tbaa !27
  %2 = getelementptr inbounds nuw i8, ptr %0, i64 8
  tail call void @mbedtls_mpi_init(ptr noundef nonnull %2) #21
  %3 = getelementptr inbounds nuw i8, ptr %0, i64 24
  tail call void @mbedtls_mpi_init(ptr noundef nonnull %3) #21
  %4 = getelementptr inbounds nuw i8, ptr %0, i64 40
  tail call void @mbedtls_mpi_init(ptr noundef nonnull %4) #21
  %5 = getelementptr inbounds nuw i8, ptr %0, i64 56
  tail call void @mbedtls_mpi_init(ptr noundef nonnull %5) #21
  %6 = getelementptr inbounds nuw i8, ptr %0, i64 72
  tail call void @mbedtls_mpi_init(ptr noundef nonnull %6) #21
  %7 = getelementptr inbounds nuw i8, ptr %0, i64 88
  tail call void @mbedtls_mpi_init(ptr noundef nonnull %7) #21
  %8 = getelementptr inbounds nuw i8, ptr %0, i64 104
  tail call void @mbedtls_mpi_init(ptr noundef nonnull %8) #21
  %9 = getelementptr inbounds nuw i8, ptr %0, i64 120
  %10 = getelementptr inbounds nuw i8, ptr %0, i64 144
  tail call void @llvm.memset.p0.i64(ptr noundef nonnull align 8 dereferenceable(20) %9, i8 0, i64 20, i1 false)
  tail call void @llvm.memset.p0.i64(ptr noundef nonnull align 8 dereferenceable(48) %10, i8 0, i64 48, i1 false)
  %11 = getelementptr inbounds nuw i8, ptr %0, i64 192
  tail call void @mbedtls_mpi_init(ptr noundef nonnull %11) #21
  %12 = getelementptr inbounds nuw i8, ptr %0, i64 208
  tail call void @mbedtls_mpi_init(ptr noundef nonnull %12) #21
  %13 = getelementptr inbounds nuw i8, ptr %0, i64 224
  tail call void @mbedtls_mpi_init(ptr noundef nonnull %13) #21
  %14 = getelementptr inbounds nuw i8, ptr %0, i64 240
  tail call void @mbedtls_mpi_init(ptr noundef nonnull %14) #21
  ret void
}